target datalayout = "e-m:e-p270:32:32-p271:32:32-p272:64:64-i64:64-i128:128-f80:128-n8:16:32:64-S128"
target triple = "x86_64-pc-linux-gnu"

%struct.ps_prochandle = type { ptr, i32, i32, ptr, ptr, i32, ptr, ptr }
%struct.core_data = type { i32, i32, i32, i32, i64, i64, i64, ptr, ptr, ptr }
%struct.lib_info = type { [4352 x i8], i64, i64, i64, i64, %struct.eh_frame_info, ptr, i32, ptr }
%struct.eh_frame_info = type { i64, i64, ptr, i32 }
%struct.map_info = type { i32, i64, i64, i64, i32, ptr }

; Function Attrs: nounwind uwtable
define internal void @destroy_map_info(ptr noundef %0) #0 {
  %2 = alloca ptr, align 8
  %3 = alloca ptr, align 8
  %4 = alloca ptr, align 8
  %5 = alloca ptr, align 8
  store ptr %0, ptr %2, align 8
  %6 = load ptr, ptr %2, align 8
  %7 = getelementptr inbounds %struct.ps_prochandle, ptr %6, i32 0, i32 7
  %8 = load ptr, ptr %7, align 8
  %9 = getelementptr inbounds %struct.core_data, ptr %8, i32 0, i32 7
  %10 = load ptr, ptr %9, align 8
  store ptr %10, ptr %3, align 8
  br label %11

11:                                               ; preds = %14, %1
  %12 = load ptr, ptr %3, align 8
  %13 = icmp ne ptr %12, null
  br i1 %13, label %14, label %20

14:                                               ; preds = %11
  %15 = load ptr, ptr %3, align 8
  %16 = getelementptr inbounds %struct.map_info, ptr %15, i32 0, i32 5
  %17 = load ptr, ptr %16, align 8
  store ptr %17, ptr %4, align 8
  %18 = load ptr, ptr %3, align 8
  call void @free(ptr noundef %18) #6
  %19 = load ptr, ptr %4, align 8
  store ptr %19, ptr %3, align 8
  br label %11, !llvm.loop !8

20:                                               ; preds = %11
  %21 = load ptr, ptr %2, align 8
  %22 = getelementptr inbounds %struct.ps_prochandle, ptr %21, i32 0, i32 7
  %23 = load ptr, ptr %22, align 8
  %24 = getelementptr inbounds %struct.core_data, ptr %23, i32 0, i32 9
  %25 = load ptr, ptr %24, align 8
  %26 = icmp ne ptr %25, null
  br i1 %26, label %27, label %33

27:                                               ; preds = %20
  %28 = load ptr, ptr %2, align 8
  %29 = getelementptr inbounds %struct.ps_prochandle, ptr %28, i32 0, i32 7
  %30 = load ptr, ptr %29, align 8
  %31 = getelementptr inbounds %struct.core_data, ptr %30, i32 0, i32 9
  %32 = load ptr, ptr %31, align 8
  call void @free(ptr noundef %32) #6
  br label %33

33:                                               ; preds = %27, %20
  %34 = load ptr, ptr %2, align 8
  %35 = getelementptr inbounds %struct.ps_prochandle, ptr %34, i32 0, i32 7
  %36 = load ptr, ptr %35, align 8
  %37 = getelementptr inbounds %struct.core_data, ptr %36, i32 0, i32 8
  %38 = load ptr, ptr %37, align 8
  store ptr %38, ptr %3, align 8
  br label %39

39:                                               ; preds = %42, %33
  %40 = load ptr, ptr %3, align 8
  %41 = icmp ne ptr %40, null
  br i1 %41, label %42, label %48

42:                                               ; preds = %39
  %43 = load ptr, ptr %3, align 8
  %44 = getelementptr inbounds %struct.map_info, ptr %43, i32 0, i32 5
  %45 = load ptr, ptr %44, align 8
  store ptr %45, ptr %5, align 8
  %46 = load ptr, ptr %3, align 8
  call void @free(ptr noundef %46) #6
  %47 = load ptr, ptr %5, align 8
  store ptr %47, ptr %3, align 8
  br label %39, !llvm.loop !9

48:                                               ; preds = %39
  ret void
}

; Function Attrs: nounwind uwtable
define internal void @close_files(ptr noundef %0) #0 {
  %2 = alloca ptr, align 8
  %3 = alloca ptr, align 8
  %4 = alloca i32, align 4
  store ptr %0, ptr %2, align 8
  store ptr null, ptr %3, align 8
  %5 = load ptr, ptr %2, align 8
  %6 = getelementptr inbounds %struct.ps_prochandle, ptr %5, i32 0, i32 7
  %7 = load ptr, ptr %6, align 8
  %8 = getelementptr inbounds %struct.core_data, ptr %7, i32 0, i32 0
  %9 = load i32, ptr %8, align 8
  %10 = icmp sge i32 %9, 0
  br i1 %10, label %11, label %18

11:                                               ; preds = %1
  %12 = load ptr, ptr %2, align 8
  %13 = getelementptr inbounds %struct.ps_prochandle, ptr %12, i32 0, i32 7
  %14 = load ptr, ptr %13, align 8
  %15 = getelementptr inbounds %struct.core_data, ptr %14, i32 0, i32 0
  %16 = load i32, ptr %15, align 8
  %17 = call i32 @close(i32 noundef %16)
  br label %18

18:                                               ; preds = %11, %1
  %19 = load ptr, ptr %2, align 8
  %20 = getelementptr inbounds %struct.ps_prochandle, ptr %19, i32 0, i32 7
  %21 = load ptr, ptr %20, align 8
  %22 = getelementptr inbounds %struct.core_data, ptr %21, i32 0, i32 1
  %23 = load i32, ptr %22, align 4
  %24 = icmp sge i32 %23, 0
  br i1 %24, label %25, label %32

25:                                               ; preds = %18
  %26 = load ptr, ptr %2, align 8
  %27 = getelementptr inbounds %struct.ps_prochandle, ptr %26, i32 0, i32 7
  %28 = load ptr, ptr %27, align 8
  %29 = getelementptr inbounds %struct.core_data, ptr %28, i32 0, i32 1
  %30 = load i32, ptr %29, align 4
  %31 = call i32 @close(i32 noundef %30)
  br label %32

32:                                               ; preds = %25, %18
  %33 = load ptr, ptr %2, align 8
  %34 = getelementptr inbounds %struct.ps_prochandle, ptr %33, i32 0, i32 7
  %35 = load ptr, ptr %34, align 8
  %36 = getelementptr inbounds %struct.core_data, ptr %35, i32 0, i32 2
  %37 = load i32, ptr %36, align 8
  %38 = icmp sge i32 %37, 0
  br i1 %38, label %39, label %46

39:                                               ; preds = %32
  %40 = load ptr, ptr %2, align 8
  %41 = getelementptr inbounds %struct.ps_prochandle, ptr %40, i32 0, i32 7
  %42 = load ptr, ptr %41, align 8
  %43 = getelementptr inbounds %struct.core_data, ptr %42, i32 0, i32 2
  %44 = load i32, ptr %43, align 8
  %45 = call i32 @close(i32 noundef %44)
  br label %46

46:                                               ; preds = %39, %32
  %47 = load ptr, ptr %2, align 8
  %48 = getelementptr inbounds %struct.ps_prochandle, ptr %47, i32 0, i32 7
  %49 = load ptr, ptr %48, align 8
  %50 = getelementptr inbounds %struct.core_data, ptr %49, i32 0, i32 3
  %51 = load i32, ptr %50, align 4
  %52 = icmp sge i32 %51, 0
  br i1 %52, label %53, label %60

53:                                               ; preds = %46
  %54 = load ptr, ptr %2, align 8
  %55 = getelementptr inbounds %struct.ps_prochandle, ptr %54, i32 0, i32 7
  %56 = load ptr, ptr %55, align 8
  %57 = getelementptr inbounds %struct.core_data, ptr %56, i32 0, i32 3
  %58 = load i32, ptr %57, align 4
  %59 = call i32 @close(i32 noundef %58)
  br label %60

60:                                               ; preds = %53, %46
  %61 = load ptr, ptr %2, align 8
  %62 = getelementptr inbounds %struct.ps_prochandle, ptr %61, i32 0, i32 3
  %63 = load ptr, ptr %62, align 8
  store ptr %63, ptr %3, align 8
  br label %64

64:                                               ; preds = %84, %60
  %65 = load ptr, ptr %3, align 8
  %66 = icmp ne ptr %65, null
  br i1 %66, label %67, label %88

67:                                               ; preds = %64
  %68 = load ptr, ptr %3, align 8
  %69 = getelementptr inbounds %struct.lib_info, ptr %68, i32 0, i32 7
  %70 = load i32, ptr %69, align 8
  store i32 %70, ptr %4, align 4
  %71 = load i32, ptr %4, align 4
  %72 = icmp sge i32 %71, 0
  br i1 %72, label %73, label %84

73:                                               ; preds = %67
  %74 = load i32, ptr %4, align 4
  %75 = load ptr, ptr %2, align 8
  %76 = getelementptr inbounds %struct.ps_prochandle, ptr %75, i32 0, i32 7
  %77 = load ptr, ptr %76, align 8
  %78 = getelementptr inbounds %struct.core_data, ptr %77, i32 0, i32 1
  %79 = load i32, ptr %78, align 4
  %80 = icmp ne i32 %74, %79
  br i1 %80, label %81, label %84

81:                                               ; preds = %73
  %82 = load i32, ptr %4, align 4
  %83 = call i32 @close(i32 noundef %82)
  br label %84

84:                                               ; preds = %81, %73, %67
  %85 = load ptr, ptr %3, align 8
  %86 = getelementptr inbounds %struct.lib_info, ptr %85, i32 0, i32 8
  %87 = load ptr, ptr %86, align 8
  store ptr %87, ptr %3, align 8
  br label %64, !llvm.loop !6

88:                                               ; preds = %64
  ret void
}

; Function Attrs: nounwind uwtable
define hidden void @core_release(ptr noundef %0) #0 {
  %2 = alloca ptr, align 8
  store ptr %0, ptr %2, align 8
  %3 = load ptr, ptr %2, align 8
  %4 = getelementptr inbounds %struct.ps_prochandle, ptr %3, i32 0, i32 7
  %5 = load ptr, ptr %4, align 8
  %6 = icmp ne ptr %5, null
  br i1 %6, label %7, label %13

7:                                                ; preds = %1
  %8 = load ptr, ptr %2, align 8
  call void @close_files(ptr noundef %8)
  %9 = load ptr, ptr %2, align 8
  call void @destroy_map_info(ptr noundef %9)
  %10 = load ptr, ptr %2, align 8
  %11 = getelementptr inbounds %struct.ps_prochandle, ptr %10, i32 0, i32 7
  %12 = load ptr, ptr %11, align 8
  call void @free(ptr noundef %12) #6
  br label %13

13:                                               ; preds = %7, %1
  ret void
}