; Function Attrs: nounwind uwtable
define hidden void @core_release(ptr nocapture noundef readonly %0) local_unnamed_addr #0 {
  %2 = getelementptr inbounds i8, ptr %0, i64 48
  %3 = load ptr, ptr %2, align 8
  %.not = icmp eq ptr %3, null
  br i1 %.not, label %59, label %4

4:                                                ; preds = %1
  %5 = load i32, ptr %3, align 8
  %6 = icmp sgt i32 %5, -1
  br i1 %6, label %7, label %9

7:                                                ; preds = %4
  %8 = tail call i32 @close(i32 noundef %5) #8
  %.pre.i = load ptr, ptr %2, align 8
  br label %9

9:                                                ; preds = %7, %4
  %10 = phi ptr [ %.pre.i, %7 ], [ %3, %4 ]
  %11 = getelementptr inbounds i8, ptr %10, i64 4
  %12 = load i32, ptr %11, align 4
  %13 = icmp sgt i32 %12, -1
  br i1 %13, label %14, label %16

14:                                               ; preds = %9
  %15 = tail call i32 @close(i32 noundef %12) #8
  %.pre24.i = load ptr, ptr %2, align 8
  br label %16

16:                                               ; preds = %14, %9
  %17 = phi ptr [ %.pre24.i, %14 ], [ %10, %9 ]
  %18 = getelementptr inbounds i8, ptr %17, i64 8
  %19 = load i32, ptr %18, align 8
  %20 = icmp sgt i32 %19, -1
  br i1 %20, label %21, label %23

21:                                               ; preds = %16
  %22 = tail call i32 @close(i32 noundef %19) #8
  %.pre25.i = load ptr, ptr %2, align 8
  br label %23

23:                                               ; preds = %21, %16
  %24 = phi ptr [ %.pre25.i, %21 ], [ %17, %16 ]
  %25 = getelementptr inbounds i8, ptr %24, i64 12
  %26 = load i32, ptr %25, align 4
  %27 = icmp sgt i32 %26, -1
  br i1 %27, label %28, label %30

28:                                               ; preds = %23
  %29 = tail call i32 @close(i32 noundef %26) #8
  br label %30

30:                                               ; preds = %28, %23
  %31 = getelementptr inbounds i8, ptr %0, i64 16
  %.021.i = load ptr, ptr %31, align 8
  %.not22.i = icmp eq ptr %.021.i, null
  br i1 %.not22.i, label %close_files.exit, label %.lr.ph.i

.lr.ph.i:                                         ; preds = %30, %41
  %.023.i = phi ptr [ %.0.i, %41 ], [ %.021.i, %30 ]
  %32 = getelementptr inbounds i8, ptr %.023.i, i64 4424
  %33 = load i32, ptr %32, align 8
  %34 = icmp sgt i32 %33, -1
  br i1 %34, label %35, label %41

35:                                               ; preds = %.lr.ph.i
  %36 = load ptr, ptr %2, align 8
  %37 = getelementptr inbounds i8, ptr %36, i64 4
  %38 = load i32, ptr %37, align 4
  %.not20.i = icmp eq i32 %33, %38
  br i1 %.not20.i, label %41, label %39

39:                                               ; preds = %35
  %40 = tail call i32 @close(i32 noundef %33) #8
  br label %41

41:                                               ; preds = %39, %35, %.lr.ph.i
  %42 = getelementptr inbounds i8, ptr %.023.i, i64 4432
  %.0.i = load ptr, ptr %42, align 8
  %.not.i = icmp eq ptr %.0.i, null
  br i1 %.not.i, label %close_files.exit, label %.lr.ph.i, !llvm.loop !6

close_files.exit:                                 ; preds = %41, %30
  %43 = load ptr, ptr %2, align 8
  %44 = getelementptr inbounds i8, ptr %43, i64 40
  %45 = load ptr, ptr %44, align 8
  %.not15.i = icmp eq ptr %45, null
  br i1 %.not15.i, label %._crit_edge.i, label %.lr.ph.i4

.lr.ph.i4:                                        ; preds = %close_files.exit, %.lr.ph.i4
  %.016.i = phi ptr [ %47, %.lr.ph.i4 ], [ %45, %close_files.exit ]
  %46 = getelementptr inbounds i8, ptr %.016.i, i64 40
  %47 = load ptr, ptr %46, align 8
  tail call void @free(ptr noundef nonnull %.016.i) #8
  %.not.i5 = icmp eq ptr %47, null
  br i1 %.not.i5, label %._crit_edge.loopexit.i, label %.lr.ph.i4, !llvm.loop !8

._crit_edge.loopexit.i:                           ; preds = %.lr.ph.i4
  %.pre.i6 = load ptr, ptr %2, align 8
  br label %._crit_edge.i

._crit_edge.i:                                    ; preds = %._crit_edge.loopexit.i, %close_files.exit
  %48 = phi ptr [ %.pre.i6, %._crit_edge.loopexit.i ], [ %43, %close_files.exit ]
  %49 = getelementptr inbounds i8, ptr %48, i64 56
  %50 = load ptr, ptr %49, align 8
  %.not13.i = icmp eq ptr %50, null
  br i1 %.not13.i, label %52, label %51

51:                                               ; preds = %._crit_edge.i
  tail call void @free(ptr noundef nonnull %50) #8
  %.pre22.i = load ptr, ptr %2, align 8
  br label %52

52:                                               ; preds = %51, %._crit_edge.i
  %53 = phi ptr [ %.pre22.i, %51 ], [ %48, %._crit_edge.i ]
  %54 = getelementptr inbounds i8, ptr %53, i64 48
  %55 = load ptr, ptr %54, align 8
  %.not1417.i = icmp eq ptr %55, null
  br i1 %.not1417.i, label %destroy_map_info.exit, label %.lr.ph20.i

.lr.ph20.i:                                       ; preds = %52, %.lr.ph20.i
  %.118.i = phi ptr [ %57, %.lr.ph20.i ], [ %55, %52 ]
  %56 = getelementptr inbounds i8, ptr %.118.i, i64 40
  %57 = load ptr, ptr %56, align 8
  tail call void @free(ptr noundef nonnull %.118.i) #8
  %.not14.i = icmp eq ptr %57, null
  br i1 %.not14.i, label %destroy_map_info.exit.loopexit, label %.lr.ph20.i, !llvm.loop !9

destroy_map_info.exit.loopexit:                   ; preds = %.lr.ph20.i
  %.pre = load ptr, ptr %2, align 8
  br label %destroy_map_info.exit

destroy_map_info.exit:                            ; preds = %destroy_map_info.exit.loopexit, %52
  %58 = phi ptr [ %.pre, %destroy_map_info.exit.loopexit ], [ %53, %52 ]
  tail call void @free(ptr noundef %58) #8
  br label %59

59:                                               ; preds = %destroy_map_info.exit, %1
  ret void
}